; Function Attrs: null_pointer_is_valid sspstrong uwtable
define hidden i32 @dissect_ber_octet_string_wcb(i1 noundef zeroext %0, ptr noundef %1, ptr noundef %2, ptr noundef %3, i32 noundef %4, i32 noundef %5, ptr noundef readonly captures(address_is_null) %6) local_unnamed_addr #0 {
  %8 = alloca ptr, align 8
  call void @llvm.lifetime.start.p0(i64 8, ptr nonnull %8) #14
  store ptr null, ptr %8, align 8
  %9 = icmp ne ptr %6, null
  %. = select i1 %9, ptr %8, ptr null
  %10 = call fastcc i32 @dissect_ber_constrained_octet_string_impl(i1 noundef zeroext %0, ptr noundef %1, ptr noundef %2, ptr noundef %3, i32 noundef %4, i32 noundef -1, i32 noundef -1, i32 noundef %5, ptr noundef %., i32 noundef 0, i32 noundef 0)
  %11 = load ptr, ptr %8, align 8
  %12 = icmp ne ptr %11, null
  %or.cond = select i1 %9, i1 %12, i1 false
  br i1 %or.cond, label %13, label %25

13:                                               ; preds = %7
  %14 = call i32 @tvb_reported_length(ptr noundef nonnull %11)
  %.not = icmp eq i32 %14, 0
  br i1 %.not, label %25, label %15

15:                                               ; preds = %13
  %16 = icmp sgt i32 %5, 0
  br i1 %16, label %17, label %22

17:                                               ; preds = %15
  %18 = getelementptr inbounds nuw i8, ptr %1, i64 24
  %19 = load ptr, ptr %18, align 8
  %20 = load i32, ptr @ett_ber_octet_string, align 4
  %21 = call ptr @proto_item_add_subtree(ptr noundef %19, i32 noundef %20)
  br label %22

22:                                               ; preds = %17, %15
  %.0 = phi ptr [ %21, %17 ], [ %2, %15 ]
  %23 = load ptr, ptr %8, align 8
  %24 = call i32 %6(i1 noundef zeroext false, ptr noundef %23, i32 noundef 0, ptr noundef %1, ptr noundef %.0, i32 noundef -1)
  br label %25

25:                                               ; preds = %22, %13, %7
  call void @llvm.lifetime.end.p0(i64 8, ptr nonnull %8) #14
  ret i32 %10
}